target datalayout = "e-m:e-p270:32:32-p271:32:32-p272:64:64-i64:64-i128:128-f80:128-n8:16:32:64-S128"
target triple = "x86_64-pc-linux-gnu"

%"struct.cv::utils::trace::details::Region::LocationStaticStorage" = type { ptr, ptr, ptr, i32, i32 }
%"class.cv::Rect_" = type { i32, i32, i32, i32 }
%"class.cv::utils::trace::details::Region" = type <{ ptr, i32, [4 x i8] }>
%"class.cv::Mat" = type { i32, i32, i32, i32, ptr, ptr, ptr, ptr, ptr, ptr, %"struct.cv::MatSize", %"struct.cv::MatStep" }
%"struct.cv::MatSize" = type { ptr }
%"struct.cv::MatStep" = type { ptr, [2 x i64] }
%"class.cv::_InputArray" = type { i32, ptr, %"class.cv::Size_.0" }
%"class.cv::Size_.0" = type { i32, i32 }

@_ZZN2cv12boundingRectERKNS_11_InputArrayEE25__cv_trace_location_fn885 = internal constant %"struct.cv::utils::trace::details::Region::LocationStaticStorage" { ptr @_ZZN2cv12boundingRectERKNS_11_InputArrayEE31__cv_trace_location_extra_fn885, ptr @.str.9, ptr @.str.1, i32 885, i32 1 }, align 8

; Function Attrs: mustprogress nounwind uwtable
define linkonce_odr hidden noundef i32 @_ZNK2cv3Mat5depthEv(ptr noundef nonnull align 8 dereferenceable(96) %0) #1 comdat align 2 {
  %2 = alloca ptr, align 8
  store ptr %0, ptr %2, align 8
  %3 = load ptr, ptr %2, align 8
  %4 = getelementptr inbounds %"class.cv::Mat", ptr %3, i32 0, i32 0
  %5 = load i32, ptr %4, align 8
  %6 = and i32 %5, 7
  ret i32 %6
}

; Function Attrs: mustprogress uwtable
define linkonce_odr hidden void @_ZNK2cv11_InputArray6getMatEi(ptr dead_on_unwind noalias writable sret(%"class.cv::Mat") align 8 %0, ptr noundef nonnull align 8 dereferenceable(24) %1, i32 noundef %2) #0 comdat align 2 {
  %4 = alloca ptr, align 8
  %5 = alloca ptr, align 8
  %6 = alloca i32, align 4
  store ptr %0, ptr %4, align 8
  store ptr %1, ptr %5, align 8
  store i32 %2, ptr %6, align 4
  %7 = load ptr, ptr %5, align 8
  %8 = call noundef i32 @_ZNK2cv11_InputArray4kindEv(ptr noundef nonnull align 8 dereferenceable(24) %7)
  %9 = icmp eq i32 %8, 65536
  br i1 %9, label %10, label %16

10:                                               ; preds = %3
  %11 = load i32, ptr %6, align 4
  %12 = icmp slt i32 %11, 0
  br i1 %12, label %13, label %16

13:                                               ; preds = %10
  %14 = getelementptr inbounds %"class.cv::_InputArray", ptr %7, i32 0, i32 1
  %15 = load ptr, ptr %14, align 8
  call void @_ZN2cv3MatC1ERKS0_(ptr noundef nonnull align 8 dereferenceable(96) %0, ptr noundef nonnull align 8 dereferenceable(96) %15)
  br label %18

16:                                               ; preds = %10, %3
  %17 = load i32, ptr %6, align 4
  call void @_ZNK2cv11_InputArray7getMat_Ei(ptr dead_on_unwind writable sret(%"class.cv::Mat") align 8 %0, ptr noundef nonnull align 8 dereferenceable(24) %7, i32 noundef %17)
  br label %18

18:                                               ; preds = %16, %13
  ret void
}

; Function Attrs: mustprogress uwtable
define { i64, i64 } @_ZN2cv12boundingRectERKNS_11_InputArrayE(ptr noundef nonnull align 8 dereferenceable(24) %0) #0 personality ptr @__gxx_personality_v0 {
  %2 = alloca %"class.cv::Rect_", align 4
  %3 = alloca ptr, align 8
  %4 = alloca %"class.cv::utils::trace::details::Region", align 8
  %5 = alloca %"class.cv::Mat", align 8
  %6 = alloca ptr, align 8
  %7 = alloca i32, align 4
  store ptr %0, ptr %3, align 8
  call void @_ZN2cv5utils5trace7details6RegionC1ERKNS3_21LocationStaticStorageE(ptr noundef nonnull align 8 dereferenceable(12) %4, ptr noundef nonnull align 8 dereferenceable(32) @_ZZN2cv12boundingRectERKNS_11_InputArrayEE25__cv_trace_location_fn885)
  %8 = load ptr, ptr %3, align 8
  invoke void @_ZNK2cv11_InputArray6getMatEi(ptr dead_on_unwind writable sret(%"class.cv::Mat") align 8 %5, ptr noundef nonnull align 8 dereferenceable(24) %8, i32 noundef -1)
          to label %9 unwind label %29

9:                                                ; preds = %1
  %10 = invoke noundef i32 @_ZNK2cv3Mat5depthEv(ptr noundef nonnull align 8 dereferenceable(96) %5)
          to label %11 unwind label %33

11:                                               ; preds = %9
  %12 = icmp sle i32 %10, 0
  br i1 %12, label %13, label %20

13:                                               ; preds = %11
  %14 = invoke { i64, i64 } @_ZL16maskBoundingRectRKN2cv3MatE(ptr noundef nonnull align 8 dereferenceable(96) %5)
          to label %15 unwind label %33

15:                                               ; preds = %13
  %16 = getelementptr inbounds { i64, i64 }, ptr %2, i32 0, i32 0
  %17 = extractvalue { i64, i64 } %14, 0
  store i64 %17, ptr %16, align 4
  %18 = getelementptr inbounds { i64, i64 }, ptr %2, i32 0, i32 1
  %19 = extractvalue { i64, i64 } %14, 1
  store i64 %19, ptr %18, align 4
  br label %27

20:                                               ; preds = %11
  %21 = invoke { i64, i64 } @_ZL20pointSetBoundingRectRKN2cv3MatE(ptr noundef nonnull align 8 dereferenceable(96) %5)
          to label %22 unwind label %33

22:                                               ; preds = %20
  %23 = getelementptr inbounds { i64, i64 }, ptr %2, i32 0, i32 0
  %24 = extractvalue { i64, i64 } %21, 0
  store i64 %24, ptr %23, align 4
  %25 = getelementptr inbounds { i64, i64 }, ptr %2, i32 0, i32 1
  %26 = extractvalue { i64, i64 } %21, 1
  store i64 %26, ptr %25, align 4
  br label %27

27:                                               ; preds = %22, %15
  call void @_ZN2cv3MatD1Ev(ptr noundef nonnull align 8 dereferenceable(96) %5) #14
  call void @_ZN2cv5utils5trace7details6RegionD2Ev(ptr noundef nonnull align 8 dereferenceable(12) %4) #14
  %28 = load { i64, i64 }, ptr %2, align 4
  ret { i64, i64 } %28

29:                                               ; preds = %1
  %30 = landingpad { ptr, i32 }
          cleanup
  %31 = extractvalue { ptr, i32 } %30, 0
  store ptr %31, ptr %6, align 8
  %32 = extractvalue { ptr, i32 } %30, 1
  store i32 %32, ptr %7, align 4
  br label %37

33:                                               ; preds = %20, %13, %9
  %34 = landingpad { ptr, i32 }
          cleanup
  %35 = extractvalue { ptr, i32 } %34, 0
  store ptr %35, ptr %6, align 8
  %36 = extractvalue { ptr, i32 } %34, 1
  store i32 %36, ptr %7, align 4
  call void @_ZN2cv3MatD1Ev(ptr noundef nonnull align 8 dereferenceable(96) %5) #14
  br label %37

37:                                               ; preds = %33, %29
  call void @_ZN2cv5utils5trace7details6RegionD2Ev(ptr noundef nonnull align 8 dereferenceable(12) %4) #14
  br label %38

38:                                               ; preds = %37
  %39 = load ptr, ptr %6, align 8
  %40 = load i32, ptr %7, align 4
  %41 = insertvalue { ptr, i32 } poison, ptr %39, 0
  %42 = insertvalue { ptr, i32 } %41, i32 %40, 1
  resume { ptr, i32 } %42
}