; Function Attrs: mustprogress uwtable
define { i64, i64 } @_ZN2cv12boundingRectERKNS_11_InputArrayE(ptr noundef nonnull align 8 dereferenceable(24) %0) local_unnamed_addr #9 personality ptr @__gxx_personality_v0 {
  %2 = alloca %"class.cv::utils::trace::details::Region", align 8
  %3 = alloca %"class.cv::Mat", align 8
  call void @_ZN2cv5utils5trace7details6RegionC1ERKNS3_21LocationStaticStorageE(ptr noundef nonnull align 8 dereferenceable(12) %2, ptr noundef nonnull align 8 dereferenceable(32) @_ZZN2cv12boundingRectERKNS_11_InputArrayEE25__cv_trace_location_fn885)
  %4 = invoke noundef i32 @_ZNK2cv11_InputArray4kindEv(ptr noundef nonnull align 8 dereferenceable(24) %0)
          to label %.noexc unwind label %24

.noexc:                                           ; preds = %1
  %5 = icmp eq i32 %4, 65536
  br i1 %5, label %6, label %9

6:                                                ; preds = %.noexc
  %7 = getelementptr inbounds i8, ptr %0, i64 8
  %8 = load ptr, ptr %7, align 8, !noalias !26
  invoke void @_ZN2cv3MatC1ERKS0_(ptr noundef nonnull align 8 dereferenceable(96) %3, ptr noundef nonnull align 8 dereferenceable(96) %8)
          to label %_ZNK2cv11_InputArray6getMatEi.exit unwind label %24

9:                                                ; preds = %.noexc
  invoke void @_ZNK2cv11_InputArray7getMat_Ei(ptr dead_on_unwind nonnull writable sret(%"class.cv::Mat") align 8 %3, ptr noundef nonnull align 8 dereferenceable(24) %0, i32 noundef -1)
          to label %_ZNK2cv11_InputArray6getMatEi.exit unwind label %24

_ZNK2cv11_InputArray6getMatEi.exit:               ; preds = %6, %9
  %10 = load i32, ptr %3, align 8
  %11 = and i32 %10, 7
  %12 = icmp eq i32 %11, 0
  br i1 %12, label %13, label %15

13:                                               ; preds = %_ZNK2cv11_InputArray6getMatEi.exit
  %14 = invoke fastcc { i64, i64 } @_ZL16maskBoundingRectRKN2cv3MatE(ptr noundef nonnull align 8 dereferenceable(96) %3)
          to label %17 unwind label %26

15:                                               ; preds = %_ZNK2cv11_InputArray6getMatEi.exit
  %16 = invoke fastcc { i64, i64 } @_ZL20pointSetBoundingRectRKN2cv3MatE(ptr noundef nonnull align 8 dereferenceable(96) %3)
          to label %17 unwind label %26

17:                                               ; preds = %15, %13
  %.pn4 = phi { i64, i64 } [ %14, %13 ], [ %16, %15 ]
  call void @_ZN2cv3MatD1Ev(ptr noundef nonnull align 8 dereferenceable(96) %3) #17
  %18 = getelementptr inbounds i8, ptr %2, i64 8
  %19 = load i32, ptr %18, align 8
  %.not.i = icmp eq i32 %19, 0
  br i1 %.not.i, label %_ZN2cv5utils5trace7details6RegionD2Ev.exit, label %20

20:                                               ; preds = %17
  invoke void @_ZN2cv5utils5trace7details6Region7destroyEv(ptr noundef nonnull align 8 dereferenceable(12) %2)
          to label %_ZN2cv5utils5trace7details6RegionD2Ev.exit unwind label %21

21:                                               ; preds = %20
  %22 = landingpad { ptr, i32 }
          catch ptr null
  %23 = extractvalue { ptr, i32 } %22, 0
  call void @__clang_call_terminate(ptr %23) #19
  unreachable

_ZN2cv5utils5trace7details6RegionD2Ev.exit:       ; preds = %17, %20
  ret { i64, i64 } %.pn4

24:                                               ; preds = %9, %6, %1
  %25 = landingpad { ptr, i32 }
          cleanup
  br label %28

26:                                               ; preds = %15, %13
  %27 = landingpad { ptr, i32 }
          cleanup
  call void @_ZN2cv3MatD1Ev(ptr noundef nonnull align 8 dereferenceable(96) %3) #17
  br label %28

28:                                               ; preds = %26, %24
  %.pn = phi { ptr, i32 } [ %27, %26 ], [ %25, %24 ]
  call void @_ZN2cv5utils5trace7details6RegionD2Ev(ptr noundef nonnull align 8 dereferenceable(12) %2) #17
  resume { ptr, i32 } %.pn
}